; ModuleID = '5/1073.c'
source_filename = "5/1073.c"
target datalayout = "e-m:e-p270:32:32-p271:32:32-p272:64:64-i64:64-f80:128-n8:16:32:64-S128"
target triple = "x86_64-pc-linux-gnu"

@.str = private unnamed_addr constant [4 x i8] c"%lf\00", align 1
@.str.1 = private unnamed_addr constant [3 x i8] c"%s\00", align 1
@.str.2 = private unnamed_addr constant [7 x i8] c"error\0A\00", align 1
@.str.3 = private unnamed_addr constant [5 x i8] c"yes\0A\00", align 1
@.str.4 = private unnamed_addr constant [4 x i8] c"no\0A\00", align 1

; Function Attrs: noinline nounwind uwtable
define dso_local i32 @main() #0 {
  %1 = alloca i32, align 4
  %2 = alloca double, align 8
  %3 = alloca [600 x i8], align 16
  %4 = alloca [600 x i8], align 16
  %5 = alloca i32, align 4
  %6 = alloca i32, align 4
  %7 = alloca i32, align 4
  store i32 0, i32* %1, align 4
  %8 = call i32 (i8*, ...) @__isoc99_scanf(i8* getelementptr inbounds ([4 x i8], [4 x i8]* @.str, i64 0, i64 0), double* %2)
  %9 = getelementptr inbounds [600 x i8], [600 x i8]* %3, i64 0, i64 0
  %10 = call i32 (i8*, ...) @__isoc99_scanf(i8* getelementptr inbounds ([3 x i8], [3 x i8]* @.str.1, i64 0, i64 0), i8* %9)
  %11 = getelementptr inbounds [600 x i8], [600 x i8]* %4, i64 0, i64 0
  %12 = call i32 (i8*, ...) @__isoc99_scanf(i8* getelementptr inbounds ([3 x i8], [3 x i8]* @.str.1, i64 0, i64 0), i8* %11)
  %13 = getelementptr inbounds [600 x i8], [600 x i8]* %3, i64 0, i64 0
  %14 = call i64 @strlen(i8* %13) #3
  %15 = trunc i64 %14 to i32
  store i32 %15, i32* %5, align 4
  store i32 0, i32* %6, align 4
  %16 = getelementptr inbounds [600 x i8], [600 x i8]* %3, i64 0, i64 0
  %17 = call i64 @strlen(i8* %16) #3
  %18 = getelementptr inbounds [600 x i8], [600 x i8]* %4, i64 0, i64 0
  %19 = call i64 @strlen(i8* %18) #3
  %20 = icmp ne i64 %17, %19
  br i1 %20, label %21, label %23

21:                                               ; preds = %0
  %22 = call i32 (i8*, ...) @printf(i8* getelementptr inbounds ([7 x i8], [7 x i8]* @.str.2, i64 0, i64 0))
  br label %125

23:                                               ; preds = %0
  store i32 0, i32* %7, align 4
  br label %24

24:                                               ; preds = %102, %23
  %25 = load i32, i32* %7, align 4
  %26 = load i32, i32* %5, align 4
  %27 = icmp slt i32 %25, %26
  br i1 %27, label %28, label %105

28:                                               ; preds = %24
  %29 = load i32, i32* %7, align 4
  %30 = sext i32 %29 to i64
  %31 = getelementptr inbounds [600 x i8], [600 x i8]* %3, i64 0, i64 %30
  %32 = load i8, i8* %31, align 1
  %33 = sext i8 %32 to i32
  %34 = icmp ne i32 %33, 65
  br i1 %34, label %35, label %56

35:                                               ; preds = %28
  %36 = load i32, i32* %7, align 4
  %37 = sext i32 %36 to i64
  %38 = getelementptr inbounds [600 x i8], [600 x i8]* %3, i64 0, i64 %37
  %39 = load i8, i8* %38, align 1
  %40 = sext i8 %39 to i32
  %41 = icmp ne i32 %40, 84
  br i1 %41, label %42, label %56

42:                                               ; preds = %35
  %43 = load i32, i32* %7, align 4
  %44 = sext i32 %43 to i64
  %45 = getelementptr inbounds [600 x i8], [600 x i8]* %3, i64 0, i64 %44
  %46 = load i8, i8* %45, align 1
  %47 = sext i8 %46 to i32
  %48 = icmp ne i32 %47, 71
  br i1 %48, label %49, label %56

49:                                               ; preds = %42
  %50 = load i32, i32* %7, align 4
  %51 = sext i32 %50 to i64
  %52 = getelementptr inbounds [600 x i8], [600 x i8]* %3, i64 0, i64 %51
  %53 = load i8, i8* %52, align 1
  %54 = sext i8 %53 to i32
  %55 = icmp ne i32 %54, 67
  br i1 %55, label %84, label %56

56:                                               ; preds = %49, %42, %35, %28
  %57 = load i32, i32* %7, align 4
  %58 = sext i32 %57 to i64
  %59 = getelementptr inbounds [600 x i8], [600 x i8]* %4, i64 0, i64 %58
  %60 = load i8, i8* %59, align 1
  %61 = sext i8 %60 to i32
  %62 = icmp ne i32 %61, 65
  br i1 %62, label %63, label %85

63:                                               ; preds = %56
  %64 = load i32, i32* %7, align 4
  %65 = sext i32 %64 to i64
  %66 = getelementptr inbounds [600 x i8], [600 x i8]* %4, i64 0, i64 %65
  %67 = load i8, i8* %66, align 1
  %68 = sext i8 %67 to i32
  %69 = icmp ne i32 %68, 84
  br i1 %69, label %70, label %85

70:                                               ; preds = %63
  %71 = load i32, i32* %7, align 4
  %72 = sext i32 %71 to i64
  %73 = getelementptr inbounds [600 x i8], [600 x i8]* %4, i64 0, i64 %72
  %74 = load i8, i8* %73, align 1
  %75 = sext i8 %74 to i32
  %76 = icmp ne i32 %75, 71
  br i1 %76, label %77, label %85

77:                                               ; preds = %70
  %78 = load i32, i32* %7, align 4
  %79 = sext i32 %78 to i64
  %80 = getelementptr inbounds [600 x i8], [600 x i8]* %4, i64 0, i64 %79
  %81 = load i8, i8* %80, align 1
  %82 = sext i8 %81 to i32
  %83 = icmp ne i32 %82, 67
  br i1 %83, label %84, label %85

84:                                               ; preds = %77, %49
  br label %105

85:                                               ; preds = %77, %70, %63, %56
  %86 = load i32, i32* %7, align 4
  %87 = sext i32 %86 to i64
  %88 = getelementptr inbounds [600 x i8], [600 x i8]* %3, i64 0, i64 %87
  %89 = load i8, i8* %88, align 1
  %90 = sext i8 %89 to i32
  %91 = load i32, i32* %7, align 4
  %92 = sext i32 %91 to i64
  %93 = getelementptr inbounds [600 x i8], [600 x i8]* %4, i64 0, i64 %92
  %94 = load i8, i8* %93, align 1
  %95 = sext i8 %94 to i32
  %96 = icmp eq i32 %90, %95
  br i1 %96, label %97, label %100

97:                                               ; preds = %85
  %98 = load i32, i32* %6, align 4
  %99 = add nsw i32 %98, 1
  store i32 %99, i32* %6, align 4
  br label %100

100:                                              ; preds = %97, %85
  br label %101

101:                                              ; preds = %100
  br label %102

102:                                              ; preds = %101
  %103 = load i32, i32* %7, align 4
  %104 = add nsw i32 %103, 1
  store i32 %104, i32* %7, align 4
  br label %24

105:                                              ; preds = %84, %24
  %106 = load i32, i32* %7, align 4
  %107 = load i32, i32* %5, align 4
  %108 = icmp eq i32 %106, %107
  br i1 %108, label %109, label %122

109:                                              ; preds = %105
  %110 = load i32, i32* %6, align 4
  %111 = sitofp i32 %110 to double
  %112 = load i32, i32* %5, align 4
  %113 = sitofp i32 %112 to double
  %114 = fdiv double %111, %113
  %115 = load double, double* %2, align 8
  %116 = fcmp ogt double %114, %115
  br i1 %116, label %117, label %119

117:                                              ; preds = %109
  %118 = call i32 (i8*, ...) @printf(i8* getelementptr inbounds ([5 x i8], [5 x i8]* @.str.3, i64 0, i64 0))
  br label %121

119:                                              ; preds = %109
  %120 = call i32 (i8*, ...) @printf(i8* getelementptr inbounds ([4 x i8], [4 x i8]* @.str.4, i64 0, i64 0))
  br label %121

121:                                              ; preds = %119, %117
  br label %124

122:                                              ; preds = %105
  %123 = call i32 (i8*, ...) @printf(i8* getelementptr inbounds ([7 x i8], [7 x i8]* @.str.2, i64 0, i64 0))
  br label %124

124:                                              ; preds = %122, %121
  br label %125

125:                                              ; preds = %124, %21
  %126 = load i32, i32* %1, align 4
  ret i32 %126
}

declare dso_local i32 @__isoc99_scanf(i8*, ...) #1

; Function Attrs: nounwind readonly
declare dso_local i64 @strlen(i8*) #2

declare dso_local i32 @printf(i8*, ...) #1


!llvm.module.flags = !{!0}
!llvm.ident = !{!1}

!0 = !{i32 1, !"wchar_size", i32 4}
!1 = !{!"clang version 10.0.0-4ubuntu1 "}
